target datalayout = "e-m:e-p270:32:32-p271:32:32-p272:64:64-i64:64-i128:128-f80:128-n8:16:32:64-S128"
target triple = "x86_64-pc-linux-gnu"

%struct._zend_array = type { %struct._zend_refcounted_h, %union.anon.0, i32, %union.anon.1, i32, i32, i32, i32, i64, ptr }
%struct._zend_refcounted_h = type { i32, %union.anon }
%union.anon = type { i32 }
%union.anon.0 = type { i32 }
%union.anon.1 = type { ptr }
%struct._zend_executor_globals = type { %struct._zval_struct, %struct._zval_struct, [32 x ptr], ptr, ptr, %struct._zend_array, %struct._zend_array, ptr, i32, i8, %struct._zval_struct, i32, ptr, ptr, ptr, ptr, ptr, ptr, i64, ptr, ptr, i32, ptr, i32, i64, i32, i32, i32, i8, i8, %struct.zend_atomic_bool_s, %struct.zend_atomic_bool_s, ptr, i64, ptr, ptr, %struct._zend_array, %struct._zend_array, i32, i8, %struct._zval_struct, %struct._zval_struct, %struct._zend_stack, %struct._zend_stack, %struct._zend_stack, ptr, i32, i32, i64, ptr, ptr, ptr, %struct._zend_objects_store, %struct._zend_lazy_objects_store, ptr, ptr, ptr, [3 x %struct._zend_op], ptr, i8, i8, i64, i32, i32, ptr, [16 x %struct._HashTableIterator], ptr, %union._zend_function, %struct._zend_op, %struct._zend_array, i64, %struct.zend_get_gc_buffer, ptr, ptr, ptr, i64, i8, i32, ptr, ptr, i64, %struct._zend_call_stack, i64, i64, %struct._zend_strtod_state, [6 x ptr] }
%struct.zend_atomic_bool_s = type { i8 }
%struct._zval_struct = type { %union._zend_value, %union.anon.3, %union.anon.6 }
%union._zend_value = type { i64 }
%union.anon.3 = type { i32 }
%union.anon.6 = type { i32 }
%struct._zend_stack = type { i32, i32, i32, ptr }
%struct._zend_objects_store = type { ptr, i32, i32, i32 }
%struct._zend_lazy_objects_store = type { %struct._zend_array }
%struct._HashTableIterator = type { ptr, i32, i32 }
%union._zend_function = type { %struct._zend_op_array }
%struct._zend_op_array = type { i8, [3 x i8], i32, ptr, ptr, ptr, i32, i32, ptr, ptr, ptr, ptr, i32, ptr, i32, i32, i32, ptr, ptr, ptr, ptr, ptr, i32, i32, ptr, ptr, ptr, i32, i32, i32, i32, ptr, ptr, [6 x ptr] }
%struct._zend_op = type { ptr, %union._znode_op, %union._znode_op, %union._znode_op, i32, i32, i8, i8, i8, i8 }
%union._znode_op = type { i32 }
%struct.zend_get_gc_buffer = type { ptr, ptr, ptr }
%struct._zend_call_stack = type { ptr, i64 }
%struct._zend_strtod_state = type { [8 x ptr], ptr, ptr }
%struct._php_hash_ops = type { ptr, ptr, ptr, ptr, ptr, ptr, ptr, ptr, i64, i64, i64, i8 }
%struct._zend_string = type { %struct._zend_refcounted_h, i64, i64, [1 x i8] }
%struct.anon.4 = type { i8, i8, %union.anon.5 }
%union.anon.5 = type { i16 }
%struct._zend_execute_data = type { ptr, ptr, ptr, ptr, %struct._zval_struct, ptr, ptr, ptr, ptr }
%struct._Bucket = type { %struct._zval_struct, i64, ptr }

@php_hash_hashtable = internal global %struct._zend_array zeroinitializer, align 8
@executor_globals = external global %struct._zend_executor_globals, align 8

; Function Attrs: alwaysinline nounwind uwtable
define internal i32 @zend_gc_addref(ptr noundef %0) #2 {
  %2 = alloca ptr, align 8
  store ptr %0, ptr %2, align 8, !tbaa !144
  br label %3

3:                                                ; preds = %1
  br label %4

4:                                                ; preds = %3
  %5 = load ptr, ptr %2, align 8, !tbaa !144
  %6 = getelementptr inbounds nuw %struct._zend_refcounted_h, ptr %5, i32 0, i32 0
  %7 = load i32, ptr %6, align 4, !tbaa !146
  %8 = add i32 %7, 1
  store i32 %8, ptr %6, align 4, !tbaa !146
  ret i32 %8
}

; Function Attrs: alwaysinline nounwind uwtable
define internal i32 @zval_gc_flags(i32 noundef %0) #2 {
  %2 = alloca i32, align 4
  store i32 %0, ptr %2, align 4, !tbaa !47
  %3 = load i32, ptr %2, align 4, !tbaa !47
  %4 = lshr i32 %3, 0
  %5 = and i32 %4, 1008
  ret i32 %5
}

; Function Attrs: alwaysinline nounwind uwtable
define internal ptr @zend_string_copy(ptr noundef %0) #2 {
  %2 = alloca ptr, align 8
  store ptr %0, ptr %2, align 8, !tbaa !4
  %3 = load ptr, ptr %2, align 8, !tbaa !4
  %4 = getelementptr inbounds nuw %struct._zend_string, ptr %3, i32 0, i32 0
  %5 = getelementptr inbounds nuw %struct._zend_refcounted_h, ptr %4, i32 0, i32 1
  %6 = load i32, ptr %5, align 4, !tbaa !15
  %7 = call i32 @zval_gc_flags(i32 noundef %6)
  %8 = and i32 %7, 64
  %9 = icmp ne i32 %8, 0
  br i1 %9, label %14, label %10

10:                                               ; preds = %1
  %11 = load ptr, ptr %2, align 8, !tbaa !4
  %12 = getelementptr inbounds nuw %struct._zend_string, ptr %11, i32 0, i32 0
  %13 = call i32 @zend_gc_addref(ptr noundef %12)
  br label %14

14:                                               ; preds = %10, %1
  %15 = load ptr, ptr %2, align 8, !tbaa !4
  ret ptr %15
}

; Function Attrs: alwaysinline nounwind uwtable
define internal zeroext i8 @zval_get_type(ptr noundef %0) #2 {
  %2 = alloca ptr, align 8
  store ptr %0, ptr %2, align 8, !tbaa !13
  %3 = load ptr, ptr %2, align 8, !tbaa !13
  %4 = getelementptr inbounds nuw %struct._zval_struct, ptr %3, i32 0, i32 1
  %5 = getelementptr inbounds nuw %struct.anon.4, ptr %4, i32 0, i32 0
  %6 = load i8, ptr %5, align 8, !tbaa !15
  ret i8 %6
}

; Function Attrs: nounwind uwtable
define hidden void @zif_hash_hmac_algos(ptr noundef %0, ptr noundef %1) #0 {
  %3 = alloca ptr, align 8
  %4 = alloca ptr, align 8
  %5 = alloca ptr, align 8
  %6 = alloca ptr, align 8
  %7 = alloca i32, align 4
  %8 = alloca ptr, align 8
  %9 = alloca ptr, align 8
  %10 = alloca ptr, align 8
  %11 = alloca ptr, align 8
  %12 = alloca ptr, align 8
  %13 = alloca ptr, align 8
  store ptr %0, ptr %3, align 8, !tbaa !51
  store ptr %1, ptr %4, align 8, !tbaa !13
  call void @llvm.lifetime.start.p0(i64 8, ptr %5) #16
  call void @llvm.lifetime.start.p0(i64 8, ptr %6) #16
  %14 = load ptr, ptr %3, align 8, !tbaa !51
  %15 = getelementptr inbounds nuw %struct._zend_execute_data, ptr %14, i32 0, i32 4
  %16 = getelementptr inbounds nuw %struct._zval_struct, ptr %15, i32 0, i32 2
  %17 = load i32, ptr %16, align 4, !tbaa !15
  %18 = icmp eq i32 %17, 0
  %19 = xor i1 %18, true
  %20 = xor i1 %19, true
  %21 = zext i1 %20 to i32
  %22 = sext i32 %21 to i64
  %23 = call i64 @llvm.expect.i64(i64 %22, i64 1)
  %24 = icmp ne i64 %23, 0
  br i1 %24, label %25, label %26

25:                                               ; preds = %2
  br label %27

26:                                               ; preds = %2
  call void @zend_wrong_parameters_none_error()
  br label %27

27:                                               ; preds = %26, %25
  %28 = phi i32 [ 0, %25 ], [ -1, %26 ]
  %29 = icmp eq i32 %28, -1
  br i1 %29, label %30, label %36

30:                                               ; preds = %27
  br label %31

31:                                               ; preds = %30
  %32 = load ptr, ptr getelementptr inbounds nuw (%struct._zend_executor_globals, ptr @executor_globals, i32 0, i32 54), align 8, !tbaa !67
  %33 = icmp ne ptr %32, null
  call void @llvm.assume(i1 %33)
  store i32 1, ptr %7, align 4
  br label %112

34:                                               ; No predecessors!
  br label %35

35:                                               ; preds = %34
  br label %36

36:                                               ; preds = %35, %27
  br label %37

37:                                               ; preds = %36
  call void @llvm.lifetime.start.p0(i64 8, ptr %8) #16
  %38 = call ptr @_zend_new_array_0()
  store ptr %38, ptr %8, align 8, !tbaa !11
  call void @llvm.lifetime.start.p0(i64 8, ptr %9) #16
  %39 = load ptr, ptr %4, align 8, !tbaa !13
  store ptr %39, ptr %9, align 8, !tbaa !13
  %40 = load ptr, ptr %8, align 8, !tbaa !11
  %41 = load ptr, ptr %9, align 8, !tbaa !13
  %42 = getelementptr inbounds nuw %struct._zval_struct, ptr %41, i32 0, i32 0
  store ptr %40, ptr %42, align 8, !tbaa !15
  %43 = load ptr, ptr %9, align 8, !tbaa !13
  %44 = getelementptr inbounds nuw %struct._zval_struct, ptr %43, i32 0, i32 1
  store i32 775, ptr %44, align 8, !tbaa !15
  call void @llvm.lifetime.end.p0(i64 8, ptr %9) #16
  call void @llvm.lifetime.end.p0(i64 8, ptr %8) #16
  br label %45

45:                                               ; preds = %37
  br label %46

46:                                               ; preds = %45
  br label %47

47:                                               ; preds = %46
  call void @llvm.lifetime.start.p0(i64 8, ptr %10) #16
  store ptr @php_hash_hashtable, ptr %10, align 8, !tbaa !11
  call void @llvm.lifetime.start.p0(i64 8, ptr %11) #16
  %48 = load ptr, ptr %10, align 8, !tbaa !11
  %49 = getelementptr inbounds nuw %struct._zend_array, ptr %48, i32 0, i32 3
  %50 = load ptr, ptr %49, align 8, !tbaa !15
  %51 = getelementptr inbounds %struct._Bucket, ptr %50, i64 0
  store ptr %51, ptr %11, align 8, !tbaa !105
  call void @llvm.lifetime.start.p0(i64 8, ptr %12) #16
  %52 = load ptr, ptr %10, align 8, !tbaa !11
  %53 = getelementptr inbounds nuw %struct._zend_array, ptr %52, i32 0, i32 3
  %54 = load ptr, ptr %53, align 8, !tbaa !15
  %55 = load ptr, ptr %10, align 8, !tbaa !11
  %56 = getelementptr inbounds nuw %struct._zend_array, ptr %55, i32 0, i32 4
  %57 = load i32, ptr %56, align 8, !tbaa !107
  %58 = zext i32 %57 to i64
  %59 = getelementptr inbounds nuw %struct._Bucket, ptr %54, i64 %58
  store ptr %59, ptr %12, align 8, !tbaa !105
  %60 = load ptr, ptr %10, align 8, !tbaa !11
  %61 = getelementptr inbounds nuw %struct._zend_array, ptr %60, i32 0, i32 1
  %62 = load i32, ptr %61, align 8, !tbaa !15
  %63 = and i32 %62, 4
  %64 = icmp ne i32 %63, 0
  %65 = xor i1 %64, true
  call void @llvm.assume(i1 %65)
  br label %66

66:                                               ; preds = %106, %47
  %67 = load ptr, ptr %11, align 8, !tbaa !105
  %68 = load ptr, ptr %12, align 8, !tbaa !105
  %69 = icmp ne ptr %67, %68
  br i1 %69, label %70, label %109

70:                                               ; preds = %66
  call void @llvm.lifetime.start.p0(i64 8, ptr %13) #16
  %71 = load ptr, ptr %11, align 8, !tbaa !105
  %72 = getelementptr inbounds nuw %struct._Bucket, ptr %71, i32 0, i32 0
  store ptr %72, ptr %13, align 8, !tbaa !13
  %73 = load ptr, ptr %13, align 8, !tbaa !13
  %74 = call zeroext i8 @zval_get_type(ptr noundef %73)
  %75 = zext i8 %74 to i32
  %76 = icmp eq i32 %75, 0
  %77 = xor i1 %76, true
  %78 = xor i1 %77, true
  %79 = zext i1 %78 to i32
  %80 = sext i32 %79 to i64
  %81 = call i64 @llvm.expect.i64(i64 %80, i64 0)
  %82 = icmp ne i64 %81, 0
  br i1 %82, label %83, label %84

83:                                               ; preds = %70
  store i32 10, ptr %7, align 4
  br label %103

84:                                               ; preds = %70
  %85 = load ptr, ptr %11, align 8, !tbaa !105
  %86 = getelementptr inbounds nuw %struct._Bucket, ptr %85, i32 0, i32 2
  %87 = load ptr, ptr %86, align 8, !tbaa !108
  store ptr %87, ptr %5, align 8, !tbaa !4
  %88 = load ptr, ptr %13, align 8, !tbaa !13
  %89 = getelementptr inbounds nuw %struct._zval_struct, ptr %88, i32 0, i32 0
  %90 = load ptr, ptr %89, align 8, !tbaa !15
  store ptr %90, ptr %6, align 8, !tbaa !9
  %91 = load ptr, ptr %6, align 8, !tbaa !9
  %92 = getelementptr inbounds nuw %struct._php_hash_ops, ptr %91, i32 0, i32 11
  %93 = load i8, ptr %92, align 8
  %94 = and i8 %93, 1
  %95 = zext i8 %94 to i32
  %96 = icmp ne i32 %95, 0
  br i1 %96, label %97, label %102

97:                                               ; preds = %84
  %98 = load ptr, ptr %4, align 8, !tbaa !13
  %99 = load ptr, ptr %5, align 8, !tbaa !4
  %100 = call ptr @zend_string_copy(ptr noundef %99)
  %101 = call i32 @add_next_index_str(ptr noundef %98, ptr noundef %100)
  br label %102

102:                                              ; preds = %97, %84
  store i32 0, ptr %7, align 4
  br label %103

103:                                              ; preds = %102, %83
  call void @llvm.lifetime.end.p0(i64 8, ptr %13) #16
  %104 = load i32, ptr %7, align 4
  switch i32 %104, label %115 [
    i32 0, label %105
    i32 10, label %106
  ]

105:                                              ; preds = %103
  br label %106

106:                                              ; preds = %105, %103
  %107 = load ptr, ptr %11, align 8, !tbaa !105
  %108 = getelementptr inbounds nuw %struct._Bucket, ptr %107, i32 1
  store ptr %108, ptr %11, align 8, !tbaa !105
  br label %66

109:                                              ; preds = %66
  call void @llvm.lifetime.end.p0(i64 8, ptr %12) #16
  call void @llvm.lifetime.end.p0(i64 8, ptr %11) #16
  call void @llvm.lifetime.end.p0(i64 8, ptr %10) #16
  br label %110

110:                                              ; preds = %109
  br label %111

111:                                              ; preds = %110
  store i32 0, ptr %7, align 4
  br label %112

112:                                              ; preds = %111, %31
  call void @llvm.lifetime.end.p0(i64 8, ptr %6) #16
  call void @llvm.lifetime.end.p0(i64 8, ptr %5) #16
  %113 = load i32, ptr %7, align 4
  switch i32 %113, label %115 [
    i32 0, label %114
    i32 1, label %114
  ]

114:                                              ; preds = %112, %112
  ret void

115:                                              ; preds = %112, %103
  unreachable
}