; Function Attrs: nounwind uwtable
define hidden void @zif_hash_hmac_algos(ptr noundef readonly captures(none) %0, ptr noundef %1) #0 {
  %3 = getelementptr inbounds nuw i8, ptr %0, i64 44
  %4 = load i32, ptr %3, align 4, !tbaa !4
  %.not = icmp eq i32 %4, 0
  br i1 %.not, label %.critedge, label %5, !prof !39

5:                                                ; preds = %2
  tail call void @zend_wrong_parameters_none_error() #16
  %6 = load ptr, ptr getelementptr inbounds nuw (i8, ptr @executor_globals, i64 960), align 8, !tbaa !47
  %7 = icmp ne ptr %6, null
  tail call void @llvm.assume(i1 %7)
  br label %.loopexit

.critedge:                                        ; preds = %2
  %8 = tail call ptr @_zend_new_array_0() #16
  store ptr %8, ptr %1, align 8, !tbaa !4
  %9 = getelementptr inbounds nuw i8, ptr %1, i64 8
  store i32 775, ptr %9, align 8, !tbaa !4
  %10 = load ptr, ptr getelementptr inbounds nuw (i8, ptr @php_hash_hashtable, i64 16), align 8, !tbaa !4
  %11 = load i32, ptr getelementptr inbounds nuw (i8, ptr @php_hash_hashtable, i64 24), align 8, !tbaa !92
  %12 = zext i32 %11 to i64
  %13 = getelementptr inbounds nuw %struct._Bucket, ptr %10, i64 %12
  %14 = load i32, ptr getelementptr inbounds nuw (i8, ptr @php_hash_hashtable, i64 8), align 8, !tbaa !4
  %15 = and i32 %14, 4
  %.not19 = icmp eq i32 %15, 0
  tail call void @llvm.assume(i1 %.not19)
  %.not2022 = icmp eq i32 %11, 0
  br i1 %.not2022, label %.loopexit, label %.lr.ph

.lr.ph:                                           ; preds = %.critedge, %34
  %.023 = phi ptr [ %35, %34 ], [ %10, %.critedge ]
  %16 = getelementptr inbounds nuw i8, ptr %.023, i64 8
  %17 = load i8, ptr %16, align 8, !tbaa !4
  %18 = icmp eq i8 %17, 0
  br i1 %18, label %34, label %19, !prof !44

19:                                               ; preds = %.lr.ph
  %20 = load ptr, ptr %.023, align 8, !tbaa !4
  %21 = getelementptr inbounds nuw i8, ptr %20, i64 88
  %22 = load i8, ptr %21, align 8
  %23 = and i8 %22, 1
  %.not21 = icmp eq i8 %23, 0
  br i1 %.not21, label %34, label %24

24:                                               ; preds = %19
  %25 = getelementptr inbounds nuw i8, ptr %.023, i64 24
  %26 = load ptr, ptr %25, align 8, !tbaa !93
  %27 = getelementptr inbounds nuw i8, ptr %26, i64 4
  %28 = load i32, ptr %27, align 4, !tbaa !4
  %29 = and i32 %28, 64
  %.not.i = icmp eq i32 %29, 0
  br i1 %.not.i, label %30, label %zend_string_copy.exit

30:                                               ; preds = %24
  %31 = load i32, ptr %26, align 4, !tbaa !8
  %32 = add i32 %31, 1
  store i32 %32, ptr %26, align 4, !tbaa !8
  br label %zend_string_copy.exit

zend_string_copy.exit:                            ; preds = %24, %30
  %33 = tail call i32 @add_next_index_str(ptr noundef nonnull %1, ptr noundef nonnull %26) #16
  br label %34

34:                                               ; preds = %19, %zend_string_copy.exit, %.lr.ph
  %35 = getelementptr inbounds nuw i8, ptr %.023, i64 32
  %.not20 = icmp eq ptr %35, %13
  br i1 %.not20, label %.loopexit, label %.lr.ph

.loopexit:                                        ; preds = %34, %.critedge, %5
  ret void
}